target datalayout = "e-m:e-p270:32:32-p271:32:32-p272:64:64-i64:64-i128:128-f80:128-n8:16:32:64-S128"
target triple = "x86_64-unknown-linux-gnu"

%"class.lp::int_gcd_test" = type <{ ptr, ptr, i32, i32, %class.rational, %class.rational, %class.rational, %class.svector, %class.vector.0, %class.svector, i32, [4 x i8] }>
%class.rational = type { %class.mpq }
%class.mpq = type { %class.mpz, %class.mpz }
%class.mpz = type { i32, i8, ptr }
%class.vector.0 = type { ptr }
%class.svector = type { %class.vector }
%class.vector = type { ptr }
%"struct.lp::lp_settings" = type <{ %"class.lp::lp_settings::default_lp_resource_limit", ptr, ptr, ptr, %"struct.lp::statistics", %class.random_gen, i32, i32, i32, i8, [3 x i8], i32, i8, [3 x i8], i32, [4 x i8], double, i8, i8, [2 x i8], i32, i32, i8, [3 x i8], i32, i8, [3 x i8], i32, i8, [3 x i8], i32, i32, i32, i32, i8, [3 x i8], i32, i32, i32, i8, i8, i8, [5 x i8] }>
%"class.lp::lp_settings::default_lp_resource_limit" = type { %"class.lp::lp_resource_limit", ptr, %class.stopwatch }
%"class.lp::lp_resource_limit" = type { ptr }
%class.stopwatch = type <{ %"class.std::chrono::time_point", %"class.std::chrono::duration", i8, [7 x i8] }>
%"class.std::chrono::time_point" = type { %"class.std::chrono::duration" }
%"class.std::chrono::duration" = type { i64 }
%"struct.lp::statistics" = type { i32, i32, i32, i32, i32, i32, i32, i32, i32, i32, i32, i32, i32, i32, i32, i32, i32, i32, i32, i32, i32, i32, i32, i32, i32, i32, i32, i32, i32, i32, i32 }
%class.random_gen = type { i32 }

; Function Attrs: mustprogress nounwind uwtable
define linkonce_odr hidden noundef nonnull align 1 dereferenceable(1) ptr @_ZN2lp11lp_settings16int_run_gcd_testEv(ptr noundef nonnull align 8 dereferenceable(299) %this) #4 comdat align 2 {
entry:
  %this.addr = alloca ptr, align 8
  store ptr %this, ptr %this.addr, align 8
  %this1 = load ptr, ptr %this.addr, align 8
  %m_int_run_gcd_test = getelementptr inbounds %"struct.lp::lp_settings", ptr %this1, i32 0, i32 34
  ret ptr %m_int_run_gcd_test
}

; Function Attrs: mustprogress uwtable
define hidden noundef zeroext i1 @_ZN2lp12int_gcd_test12should_applyEv(ptr noundef nonnull align 8 dereferenceable(148) %this) #5 align 2 {
entry:
  %this.addr = alloca ptr, align 8
  store ptr %this, ptr %this.addr, align 8
  %this1 = load ptr, ptr %this.addr, align 8
  %lia = getelementptr inbounds %"class.lp::int_gcd_test", ptr %this1, i32 0, i32 0
  %0 = load ptr, ptr %lia, align 8
  %call = call noundef nonnull align 8 dereferenceable(299) ptr @_ZN2lp10int_solver8settingsEv(ptr noundef nonnull align 8 dereferenceable(504) %0)
  %call2 = call noundef nonnull align 1 dereferenceable(1) ptr @_ZN2lp11lp_settings16int_run_gcd_testEv(ptr noundef nonnull align 8 dereferenceable(299) %call)
  %1 = load i8, ptr %call2, align 1
  %tobool = trunc i8 %1 to i1
  ret i1 %tobool
}