; Function Attrs: mustprogress uwtable
define hidden noundef zeroext i1 @_ZN2lp12int_gcd_test12should_applyEv(ptr nocapture noundef nonnull readonly align 8 dereferenceable(148) %this) local_unnamed_addr #5 align 2 {
entry:
  %0 = load ptr, ptr %this, align 8
  %call = tail call noundef nonnull align 8 dereferenceable(299) ptr @_ZN2lp10int_solver8settingsEv(ptr noundef nonnull align 8 dereferenceable(504) %0)
  %m_int_run_gcd_test.i = getelementptr inbounds i8, ptr %call, i64 280
  %1 = load i8, ptr %m_int_run_gcd_test.i, align 8
  %2 = and i8 %1, 1
  %tobool = icmp ne i8 %2, 0
  ret i1 %tobool
}